; Function Attrs: nounwind uwtable
define internal noundef i32 @nut_read_close(ptr noundef readonly captures(none) %0) #1 {
  %2 = getelementptr inbounds nuw i8, ptr %0, i64 24
  %3 = load ptr, ptr %2, align 8, !tbaa !15
  %4 = getelementptr inbounds nuw i8, ptr %3, i64 4296
  tail call void @av_freep(ptr noundef nonnull %4) #12
  %5 = getelementptr inbounds nuw i8, ptr %3, i64 4248
  tail call void @av_freep(ptr noundef nonnull %5) #12
  tail call void @ff_nut_free_sp(ptr noundef %3) #12
  %6 = getelementptr inbounds nuw i8, ptr %3, i64 4288
  %7 = load i32, ptr %6, align 8, !tbaa !60
  %8 = icmp sgt i32 %7, 1
  br i1 %8, label %.lr.ph, label %._crit_edge

.lr.ph:                                           ; preds = %1
  %9 = getelementptr inbounds nuw i8, ptr %3, i64 3216
  br label %10

10:                                               ; preds = %.lr.ph, %10
  %indvars.iv = phi i64 [ 1, %.lr.ph ], [ %indvars.iv.next, %10 ]
  %11 = getelementptr inbounds nuw [128 x ptr], ptr %9, i64 0, i64 %indvars.iv
  tail call void @av_freep(ptr noundef nonnull %11) #12
  %indvars.iv.next = add nuw nsw i64 %indvars.iv, 1
  %12 = load i32, ptr %6, align 8, !tbaa !60
  %13 = sext i32 %12 to i64
  %14 = icmp slt i64 %indvars.iv.next, %13
  br i1 %14, label %10, label %._crit_edge, !llvm.loop !140

._crit_edge:                                      ; preds = %10, %1
  ret i32 0
}